Certificate:
    Data:
        Version: 3 (0x2)
        Serial Number: 0 (0x0)
        Signature Algorithm: sha1WithRSAEncryption
        Issuer: C=IE, O=Grid-Ireland, CN=Grid-Ireland Certification Authority
        Validity
            Not Before: Jul 28 17:10:40 2002 GMT
            Not After : Jul 27 17:10:40 2012 GMT
        Subject: C=IE, O=Grid-Ireland, CN=Grid-Ireland Certification Authority
        Subject Public Key Info:
            Public Key Algorithm: rsaEncryption
            RSA Public Key: (2048 bit)
                Modulus (2048 bit):
                    00:df:12:76:e4:21:59:77:59:de:b4:6c:81:97:88:
                    89:c2:f7:10:58:86:81:5c:7f:54:04:d2:8c:ab:a9:
                    a0:05:8b:29:49:2c:a6:95:47:d5:ec:31:09:18:e7:
                    fa:f5:32:c4:f8:f2:27:a7:48:d8:cc:08:bd:8d:e7:
                    80:79:34:d2:e7:7a:df:bd:fd:54:c2:50:22:54:19:
                    f8:ed:33:c6:18:eb:06:ba:e5:9a:e1:72:49:78:7d:
                    33:da:e4:51:37:1c:c6:e8:d9:38:91:e6:03:16:84:
                    8d:1e:81:db:61:ec:e2:be:4c:96:dc:90:cd:72:8c:
                    50:e8:09:aa:0c:e7:08:18:d5:29:22:af:8c:67:02:
                    e2:9c:5d:a2:7c:7b:9a:14:d1:ab:57:48:c2:8d:66:
                    e9:7d:83:90:e0:e2:b8:f7:4f:a3:bd:38:a4:43:86:
                    7c:f3:8b:79:6c:89:9d:87:83:ab:ad:38:f2:85:ce:
                    b8:16:28:6d:40:9d:1f:6e:9a:40:7f:6e:c7:72:e5:
                    3e:32:79:72:a4:ab:9f:4d:30:93:50:de:e2:c5:20:
                    38:c2:f9:a1:32:54:82:e2:1b:b1:24:81:00:ef:9d:
                    01:50:79:1d:39:3e:95:d5:d9:0e:79:fe:a3:d8:04:
                    5f:07:7f:1d:2a:47:c6:c4:93:0d:a7:31:1d:16:75:
                    14:8d
                Exponent: 65537 (0x10001)
        X509v3 extensions:
            X509v3 Subject Key Identifier: 
            9A:E2:D7:80:68:DB:92:65:5E:5B:83:BD:37:4D:0E:A1:79:26:2C:57
            X509v3 Authority Key Identifier: 
            keyid:9A:E2:D7:80:68:DB:92:65:5E:5B:83:BD:37:4D:0E:A1:79:26:2C:57

            X509v3 Basic Constraints: critical
            CA:TRUE
            X509v3 Key Usage: critical
            Digital Signature, Non Repudiation, Certificate Sign, CRL Sign
            Netscape Cert Type: 
            SSL CA, S/MIME CA, Object Signing CA
            X509v3 Subject Alternative Name: 
            email:grid-ireland-ca@cs.tcd.ie
            X509v3 Issuer Alternative Name: 
            email:grid-ireland-ca@cs.tcd.ie
            Netscape Comment: 
            Grid-Ireland CA Certificate
    Signature Algorithm: sha1WithRSAEncryption
        d5:f1:a7:16:88:4c:98:33:09:e7:07:fa:97:f0:9e:da:47:c9:
        42:5f:c5:2a:db:69:aa:e8:0a:ec:47:98:e2:2d:96:ad:34:d3:
        b4:23:19:c2:a6:58:52:1f:9d:82:07:69:f1:0d:4f:f0:b0:64:
        c4:30:f7:63:69:43:a4:1c:f7:45:b2:69:bd:df:43:c5:2d:5d:
        8a:d9:74:20:a2:a4:5f:66:d9:a5:31:6e:2f:73:51:22:92:81:
        09:46:09:97:61:f7:ed:8c:64:7e:0b:7e:e7:b7:25:a5:01:a7:
        ba:2e:59:5f:93:bb:90:c2:d3:50:b9:38:0b:51:67:e8:9a:c1:
        08:e9:f4:6d:25:3b:5b:6b:47:50:fe:df:d4:d1:12:17:ce:7a:
        11:45:be:cd:07:13:b7:e3:29:30:81:c0:0a:26:fa:11:b2:26:
        b3:39:cc:87:ae:8b:41:bc:9c:ae:f5:ec:9d:9f:8f:6e:e3:84:
        23:00:30:75:3a:b4:f7:04:10:69:03:0d:c3:9c:34:25:03:31:
        36:f7:df:c5:34:86:7d:64:de:f9:cd:5b:60:75:3f:6d:4e:4a:
        ab:de:fd:3a:96:f4:1c:31:7f:54:77:1b:60:10:81:6e:0b:2c:
        e4:89:21:3c:87:a8:f7:3d:44:83:98:61:7a:71:22:63:64:2d:
        46:fe:07:b3
-----BEGIN CERTIFICATE-----
MIIEETCCAvmgAwIBAgIBADANBgkqhkiG9w0BAQUFADBTMQswCQYDVQQGEwJJRTEV
MBMGA1UEChMMR3JpZC1JcmVsYW5kMS0wKwYDVQQDEyRHcmlkLUlyZWxhbmQgQ2Vy
dGlmaWNhdGlvbiBBdXRob3JpdHkwHhcNMDIwNzI4MTcxMDQwWhcNMTIwNzI3MTcx
MDQwWjBTMQswCQYDVQQGEwJJRTEVMBMGA1UEChMMR3JpZC1JcmVsYW5kMS0wKwYD
VQQDEyRHcmlkLUlyZWxhbmQgQ2VydGlmaWNhdGlvbiBBdXRob3JpdHkwggEiMA0G
CSqGSIb3DQEBAQUAA4IBDwAwggEKAoIBAQDfEnbkIVl3Wd60bIGXiInC9xBYhoFc
f1QE0oyrqaAFiylJLKaVR9XsMQkY5/r1MsT48ienSNjMCL2N54B5NNLnet+9/VTC
UCJUGfjtM8YY6wa65Zrhckl4fTPa5FE3HMbo2TiR5gMWhI0egdth7OK+TJbckM1y
jFDoCaoM5wgY1Skir4xnAuKcXaJ8e5oU0atXSMKNZul9g5Dg4rj3T6O9OKRDhnzz
i3lsiZ2Hg6utOPKFzrgWKG1AnR9umkB/bsdy5T4yeXKkq59NMJNQ3uLFIDjC+aEy
VILiG7EkgQDvnQFQeR05PpXV2Q55/qPYBF8Hfx0qR8bEkw2nMR0WdRSNAgMBAAGj
ge8wgewwHQYDVR0OBBYEFJri14Bo25JlXluDvTdNDqF5JixXMB8GA1UdIwQYMBaA
FJri14Bo25JlXluDvTdNDqF5JixXMA8GA1UdEwEB/wQFMAMBAf8wDgYDVR0PAQH/
BAQDAgHGMBEGCWCGSAGG+EIBAQQEAwIABzAkBgNVHREEHTAbgRlncmlkLWlyZWxh
bmQtY2FAY3MudGNkLmllMCQGA1UdEgQdMBuBGWdyaWQtaXJlbGFuZC1jYUBjcy50
Y2QuaWUwKgYJYIZIAYb4QgENBB0WG0dyaWQtSXJlbGFuZCBDQSBDZXJ0aWZpY2F0
ZTANBgkqhkiG9w0BAQUFAAOCAQEA1fGnFohMmDMJ5wf6l/Ce2kfJQl/FKttpqugK
7EeY4i2WrTTTtCMZwqZYUh+dggdp8Q1P8LBkxDD3Y2lDpBz3RbJpvd9DxS1ditl0
IKKkX2bZpTFuL3NRIpKBCUYJl2H37Yxkfgt+57clpQGnui5ZX5O7kMLTULk4C1Fn
6JrBCOn0bSU7W2tHUP7f1NESF856EUW+zQcTt+MpMIHACib6EbImsznMh66LQbyc
rvXsnZ+PbuOEIwAwdTq09wQQaQMNw5w0JQMxNvffxTSGfWTe+c1bYHU/bU5Kq979
Opb0HDF/VHcbYBCBbgss5IkhPIeo9z1Eg5hhenEiY2QtRv4Hsw==
-----END CERTIFICATE-----
